target datalayout = "e-m:e-p270:32:32-p271:32:32-p272:64:64-i64:64-i128:128-f80:128-n8:16:32:64-S128"
target triple = "x86_64-pc-linux-gnu"

%"struct.faiss::(anonymous namespace)::FlatHammingDis" = type <{ %"struct.faiss::DistanceComputer", i32, [4 x i8], ptr, i64, %"struct.faiss::HammingComputer4", [4 x i8] }>
%"struct.faiss::DistanceComputer" = type { ptr }
%"struct.faiss::HammingComputer4" = type { i32 }

; Function Attrs: mustprogress nounwind uwtable
define linkonce_odr noundef i32 @_ZN5faiss10popcount64Em(i64 noundef %0) #0 comdat {
  %2 = alloca i64, align 8
  store i64 %0, ptr %2, align 8
  %3 = load i64, ptr %2, align 8
  %4 = call i64 @llvm.ctpop.i64(i64 %3)
  %5 = trunc i64 %4 to i32
  ret i32 %5
}

; Function Attrs: mustprogress uwtable
define linkonce_odr noundef i32 @_ZNK5faiss16HammingComputer47hammingEPKh(ptr noundef nonnull align 4 dereferenceable(4) %0, ptr noundef %1) #1 comdat align 2 {
  %3 = alloca ptr, align 8
  %4 = alloca ptr, align 8
  store ptr %0, ptr %3, align 8
  store ptr %1, ptr %4, align 8
  %5 = load ptr, ptr %3, align 8
  %6 = load ptr, ptr %4, align 8
  %7 = load i32, ptr %6, align 4
  %8 = getelementptr inbounds %"struct.faiss::HammingComputer4", ptr %5, i32 0, i32 0
  %9 = load i32, ptr %8, align 4
  %10 = xor i32 %7, %9
  %11 = zext i32 %10 to i64
  %12 = call noundef i32 @_ZN5faiss10popcount64Em(i64 noundef %11)
  ret i32 %12
}

; Function Attrs: mustprogress uwtable
define internal noundef float @_ZN5faiss12_GLOBAL__N_114FlatHammingDisINS_16HammingComputer4EEclEl(ptr noundef nonnull align 8 dereferenceable(36) %0, i64 noundef %1) unnamed_addr #1 align 2 {
  %3 = alloca ptr, align 8
  %4 = alloca i64, align 8
  store ptr %0, ptr %3, align 8
  store i64 %1, ptr %4, align 8
  %5 = load ptr, ptr %3, align 8
  %6 = getelementptr inbounds %"struct.faiss::(anonymous namespace)::FlatHammingDis", ptr %5, i32 0, i32 4
  %7 = load i64, ptr %6, align 8
  %8 = add i64 %7, 1
  store i64 %8, ptr %6, align 8
  %9 = getelementptr inbounds %"struct.faiss::(anonymous namespace)::FlatHammingDis", ptr %5, i32 0, i32 5
  %10 = getelementptr inbounds %"struct.faiss::(anonymous namespace)::FlatHammingDis", ptr %5, i32 0, i32 3
  %11 = load ptr, ptr %10, align 8
  %12 = load i64, ptr %4, align 8
  %13 = getelementptr inbounds %"struct.faiss::(anonymous namespace)::FlatHammingDis", ptr %5, i32 0, i32 1
  %14 = load i32, ptr %13, align 8
  %15 = sext i32 %14 to i64
  %16 = mul nsw i64 %12, %15
  %17 = getelementptr inbounds i8, ptr %11, i64 %16
  %18 = call noundef i32 @_ZNK5faiss16HammingComputer47hammingEPKh(ptr noundef nonnull align 4 dereferenceable(4) %9, ptr noundef %17)
  %19 = sitofp i32 %18 to float
  ret float %19
}